target datalayout = "e-m:e-p270:32:32-p271:32:32-p272:64:64-i64:64-i128:128-f80:128-n8:16:32:64-S128"
target triple = "x86_64-pc-linux-gnu"

%struct.RepeatInfo = type { i8, i32, i32, i32, i32, i32, i32, [2 x i32], i32, i32, i32, i32, i32 }
%struct.RepeatBitmapControl = type { i64, i64 }

; Function Attrs: alwaysinline nounwind uwtable
define internal i32 @clz64(i64 noundef %0) #2 {
  %2 = alloca i64, align 8
  store i64 %0, ptr %2, align 8
  %3 = load i64, ptr %2, align 8
  %4 = call i64 @llvm.ctlz.i64(i64 %3, i1 true)
  %5 = trunc i64 %4 to i32
  ret i32 %5
}

; Function Attrs: nounwind uwtable
define hidden void @repeatStoreBitmap(ptr noundef %0, ptr noundef %1, i64 noundef %2, i8 noundef signext %3) #0 {
  %5 = alloca ptr, align 8
  %6 = alloca ptr, align 8
  %7 = alloca i64, align 8
  %8 = alloca i8, align 1
  %9 = alloca ptr, align 8
  %10 = alloca i32, align 4
  %11 = alloca i64, align 8
  %12 = alloca i64, align 8
  %13 = alloca i64, align 8
  store ptr %0, ptr %5, align 8
  store ptr %1, ptr %6, align 8
  store i64 %2, ptr %7, align 8
  store i8 %3, ptr %8, align 1
  br label %14

14:                                               ; preds = %4
  br label %15

15:                                               ; preds = %14
  call void @llvm.lifetime.start.p0(i64 8, ptr %9) #7
  %16 = load ptr, ptr %6, align 8
  store ptr %16, ptr %9, align 8
  %17 = load i8, ptr %8, align 1
  %18 = icmp ne i8 %17, 0
  br i1 %18, label %19, label %24

19:                                               ; preds = %15
  %20 = load ptr, ptr %9, align 8
  %21 = getelementptr inbounds nuw %struct.RepeatBitmapControl, ptr %20, i32 0, i32 1
  %22 = load i64, ptr %21, align 8
  %23 = icmp ne i64 %22, 0
  br i1 %23, label %33, label %24

24:                                               ; preds = %19, %15
  br label %25

25:                                               ; preds = %24
  br label %26

26:                                               ; preds = %25
  br label %27

27:                                               ; preds = %26
  %28 = load i64, ptr %7, align 8
  %29 = load ptr, ptr %9, align 8
  %30 = getelementptr inbounds nuw %struct.RepeatBitmapControl, ptr %29, i32 0, i32 0
  store i64 %28, ptr %30, align 8
  %31 = load ptr, ptr %9, align 8
  %32 = getelementptr inbounds nuw %struct.RepeatBitmapControl, ptr %31, i32 0, i32 1
  store i64 1, ptr %32, align 8
  store i32 1, ptr %10, align 4
  br label %118

33:                                               ; preds = %19
  call void @llvm.lifetime.start.p0(i64 8, ptr %11) #7
  %34 = load ptr, ptr %9, align 8
  %35 = getelementptr inbounds nuw %struct.RepeatBitmapControl, ptr %34, i32 0, i32 0
  %36 = load i64, ptr %35, align 8
  %37 = add i64 %36, 63
  %38 = load ptr, ptr %9, align 8
  %39 = getelementptr inbounds nuw %struct.RepeatBitmapControl, ptr %38, i32 0, i32 1
  %40 = load i64, ptr %39, align 8
  %41 = call i32 @clz64(i64 noundef %40)
  %42 = zext i32 %41 to i64
  %43 = sub i64 %37, %42
  store i64 %43, ptr %11, align 8
  %44 = load i64, ptr %7, align 8
  %45 = load i64, ptr %11, align 8
  %46 = load ptr, ptr %5, align 8
  %47 = getelementptr inbounds nuw %struct.RepeatInfo, ptr %46, i32 0, i32 2
  %48 = load i32, ptr %47, align 4
  %49 = zext i32 %48 to i64
  %50 = add i64 %45, %49
  %51 = icmp ugt i64 %44, %50
  br i1 %51, label %52, label %61

52:                                               ; preds = %33
  br label %53

53:                                               ; preds = %52
  br label %54

54:                                               ; preds = %53
  br label %55

55:                                               ; preds = %54
  %56 = load i64, ptr %7, align 8
  %57 = load ptr, ptr %9, align 8
  %58 = getelementptr inbounds nuw %struct.RepeatBitmapControl, ptr %57, i32 0, i32 0
  store i64 %56, ptr %58, align 8
  %59 = load ptr, ptr %9, align 8
  %60 = getelementptr inbounds nuw %struct.RepeatBitmapControl, ptr %59, i32 0, i32 1
  store i64 1, ptr %60, align 8
  store i32 1, ptr %10, align 4
  br label %117

61:                                               ; preds = %33
  call void @llvm.lifetime.start.p0(i64 8, ptr %12) #7
  %62 = load i64, ptr %7, align 8
  %63 = load ptr, ptr %9, align 8
  %64 = getelementptr inbounds nuw %struct.RepeatBitmapControl, ptr %63, i32 0, i32 0
  %65 = load i64, ptr %64, align 8
  %66 = sub i64 %62, %65
  store i64 %66, ptr %12, align 8
  %67 = load i64, ptr %12, align 8
  %68 = load ptr, ptr %5, align 8
  %69 = getelementptr inbounds nuw %struct.RepeatInfo, ptr %68, i32 0, i32 2
  %70 = load i32, ptr %69, align 4
  %71 = add i32 %70, 1
  %72 = zext i32 %71 to i64
  %73 = icmp uge i64 %67, %72
  br i1 %73, label %74, label %105

74:                                               ; preds = %61
  br label %75

75:                                               ; preds = %74
  br label %76

76:                                               ; preds = %75
  br label %77

77:                                               ; preds = %76
  call void @llvm.lifetime.start.p0(i64 8, ptr %13) #7
  %78 = load i64, ptr %12, align 8
  %79 = load ptr, ptr %5, align 8
  %80 = getelementptr inbounds nuw %struct.RepeatInfo, ptr %79, i32 0, i32 2
  %81 = load i32, ptr %80, align 4
  %82 = zext i32 %81 to i64
  %83 = sub i64 %78, %82
  store i64 %83, ptr %13, align 8
  %84 = load i64, ptr %13, align 8
  %85 = load ptr, ptr %9, align 8
  %86 = getelementptr inbounds nuw %struct.RepeatBitmapControl, ptr %85, i32 0, i32 0
  %87 = load i64, ptr %86, align 8
  %88 = add i64 %87, %84
  store i64 %88, ptr %86, align 8
  %89 = load i64, ptr %13, align 8
  %90 = icmp uge i64 %89, 64
  br i1 %90, label %91, label %92

91:                                               ; preds = %77
  br label %98

92:                                               ; preds = %77
  %93 = load ptr, ptr %9, align 8
  %94 = getelementptr inbounds nuw %struct.RepeatBitmapControl, ptr %93, i32 0, i32 1
  %95 = load i64, ptr %94, align 8
  %96 = load i64, ptr %13, align 8
  %97 = lshr i64 %95, %96
  br label %98

98:                                               ; preds = %92, %91
  %99 = phi i64 [ 0, %91 ], [ %97, %92 ]
  %100 = load ptr, ptr %9, align 8
  %101 = getelementptr inbounds nuw %struct.RepeatBitmapControl, ptr %100, i32 0, i32 1
  store i64 %99, ptr %101, align 8
  br label %102

102:                                              ; preds = %98
  br label %103

103:                                              ; preds = %102
  br label %104

104:                                              ; preds = %103
  call void @llvm.lifetime.end.p0(i64 8, ptr %13) #7
  br label %105

105:                                              ; preds = %104, %61
  %106 = load i64, ptr %7, align 8
  %107 = load ptr, ptr %9, align 8
  %108 = getelementptr inbounds nuw %struct.RepeatBitmapControl, ptr %107, i32 0, i32 0
  %109 = load i64, ptr %108, align 8
  %110 = sub i64 %106, %109
  store i64 %110, ptr %12, align 8
  %111 = load i64, ptr %12, align 8
  %112 = shl i64 1, %111
  %113 = load ptr, ptr %9, align 8
  %114 = getelementptr inbounds nuw %struct.RepeatBitmapControl, ptr %113, i32 0, i32 1
  %115 = load i64, ptr %114, align 8
  %116 = or i64 %115, %112
  store i64 %116, ptr %114, align 8
  call void @llvm.lifetime.end.p0(i64 8, ptr %12) #7
  store i32 0, ptr %10, align 4
  br label %117

117:                                              ; preds = %105, %55
  call void @llvm.lifetime.end.p0(i64 8, ptr %11) #7
  br label %118

118:                                              ; preds = %117, %27
  call void @llvm.lifetime.end.p0(i64 8, ptr %9) #7
  %119 = load i32, ptr %10, align 4
  switch i32 %119, label %121 [
    i32 0, label %120
    i32 1, label %120
  ]

120:                                              ; preds = %118, %118
  ret void

121:                                              ; preds = %118
  unreachable
}