; Function Attrs: mustprogress nofree norecurse nosync nounwind willreturn memory(argmem: readwrite) uwtable
define hidden void @repeatStoreBitmap(ptr noundef readonly captures(none) %0, ptr noundef captures(none) %1, i64 noundef %2, i8 noundef signext %3) local_unnamed_addr #5 {
  %.not = icmp eq i8 %3, 0
  br i1 %.not, label %8, label %5

5:                                                ; preds = %4
  %6 = getelementptr inbounds nuw i8, ptr %1, i64 8
  %7 = load i64, ptr %6, align 8
  %.not32 = icmp eq i64 %7, 0
  br i1 %.not32, label %8, label %10

8:                                                ; preds = %4, %5
  store i64 %2, ptr %1, align 8
  %9 = getelementptr inbounds nuw i8, ptr %1, i64 8
  store i64 1, ptr %9, align 8
  br label %35

10:                                               ; preds = %5
  %11 = load i64, ptr %1, align 8
  %12 = tail call range(i64 0, 65) i64 @llvm.ctlz.i64(i64 range(i64 1, 0) %7, i1 true)
  %13 = getelementptr inbounds nuw i8, ptr %0, i64 8
  %14 = load i32, ptr %13, align 4
  %15 = zext i32 %14 to i64
  %16 = xor i64 %12, 63
  %17 = add i64 %16, %11
  %18 = add i64 %17, %15
  %19 = icmp ugt i64 %2, %18
  br i1 %19, label %20, label %21

20:                                               ; preds = %10
  store i64 %2, ptr %1, align 8
  br label %34

21:                                               ; preds = %10
  %22 = sub i64 %2, %11
  %23 = add i32 %14, 1
  %24 = zext i32 %23 to i64
  %.not33 = icmp ult i64 %22, %24
  br i1 %.not33, label %30, label %25

25:                                               ; preds = %21
  %26 = sub i64 %22, %15
  %27 = add i64 %26, %11
  store i64 %27, ptr %1, align 8
  %28 = icmp ugt i64 %26, 63
  %29 = lshr i64 %7, %26
  %spec.select = select i1 %28, i64 0, i64 %29
  %.pre = sub i64 %2, %27
  br label %30

30:                                               ; preds = %25, %21
  %.pre-phi = phi i64 [ %.pre, %25 ], [ %22, %21 ]
  %31 = phi i64 [ %spec.select, %25 ], [ %7, %21 ]
  %32 = shl nuw i64 1, %.pre-phi
  %33 = or i64 %32, %31
  br label %34

34:                                               ; preds = %30, %20
  %storemerge = phi i64 [ %33, %30 ], [ 1, %20 ]
  store i64 %storemerge, ptr %6, align 8
  br label %35

35:                                               ; preds = %34, %8
  ret void
}